target datalayout = "e-m:e-p270:32:32-p271:32:32-p272:64:64-i64:64-i128:128-f80:128-n8:16:32:64-S128"
target triple = "x86_64-pc-linux-gnu"

%struct.Llb_Grp_t_ = type { i32, ptr, ptr, ptr, ptr, ptr, ptr }
%struct.Llb_Man_t_ = type { ptr, ptr, ptr, ptr, ptr, ptr, ptr, ptr, ptr, ptr, ptr, ptr, ptr, ptr, ptr, ptr, ptr }
%struct.Vec_Ptr_t_ = type { i32, i32, ptr }
%struct.Aig_Obj_t_ = type { %union.anon, ptr, ptr, i64, i32, i32, %union.anon.0 }
%union.anon = type { ptr }
%union.anon.0 = type { ptr }

; Function Attrs: inlinehint nounwind uwtable
define internal i32 @Vec_PtrSize(ptr noundef %0) #3 {
  %2 = alloca ptr, align 8
  store ptr %0, ptr %2, align 8, !tbaa !25
  %3 = load ptr, ptr %2, align 8, !tbaa !25
  %4 = getelementptr inbounds nuw %struct.Vec_Ptr_t_, ptr %3, i32 0, i32 1
  %5 = load i32, ptr %4, align 4, !tbaa !26
  ret i32 %5
}

; Function Attrs: inlinehint nounwind uwtable
define internal ptr @Vec_PtrEntry(ptr noundef %0, i32 noundef %1) #3 {
  %3 = alloca ptr, align 8
  %4 = alloca i32, align 4
  store ptr %0, ptr %3, align 8, !tbaa !25
  store i32 %1, ptr %4, align 4, !tbaa !24
  %5 = load ptr, ptr %3, align 8, !tbaa !25
  %6 = getelementptr inbounds nuw %struct.Vec_Ptr_t_, ptr %5, i32 0, i32 2
  %7 = load ptr, ptr %6, align 8, !tbaa !29
  %8 = load i32, ptr %4, align 4, !tbaa !24
  %9 = sext i32 %8 to i64
  %10 = getelementptr inbounds ptr, ptr %7, i64 %9
  %11 = load ptr, ptr %10, align 8, !tbaa !30
  ret ptr %11
}

; Function Attrs: nounwind uwtable
define i32 @Llb_ManGroupHasVar(ptr noundef %0, i32 noundef %1, i32 noundef %2) #0 {
  %4 = alloca i32, align 4
  %5 = alloca ptr, align 8
  %6 = alloca i32, align 4
  %7 = alloca i32, align 4
  %8 = alloca ptr, align 8
  %9 = alloca ptr, align 8
  %10 = alloca i32, align 4
  %11 = alloca i32, align 4
  store ptr %0, ptr %5, align 8, !tbaa !3
  store i32 %1, ptr %6, align 4, !tbaa !24
  store i32 %2, ptr %7, align 4, !tbaa !24
  call void @llvm.lifetime.start.p0(i64 8, ptr %8) #8
  %12 = load ptr, ptr %5, align 8, !tbaa !3
  %13 = getelementptr inbounds nuw %struct.Llb_Man_t_, ptr %12, i32 0, i32 8
  %14 = load ptr, ptr %13, align 8, !tbaa !16
  %15 = load i32, ptr %6, align 4, !tbaa !24
  %16 = call ptr @Vec_PtrEntry(ptr noundef %14, i32 noundef %15)
  store ptr %16, ptr %8, align 8, !tbaa !8
  call void @llvm.lifetime.start.p0(i64 8, ptr %9) #8
  call void @llvm.lifetime.start.p0(i64 4, ptr %10) #8
  store i32 0, ptr %10, align 4, !tbaa !24
  br label %17

17:                                               ; preds = %40, %3
  %18 = load i32, ptr %10, align 4, !tbaa !24
  %19 = load ptr, ptr %8, align 8, !tbaa !8
  %20 = getelementptr inbounds nuw %struct.Llb_Grp_t_, ptr %19, i32 0, i32 1
  %21 = load ptr, ptr %20, align 8, !tbaa !14
  %22 = call i32 @Vec_PtrSize(ptr noundef %21)
  %23 = icmp slt i32 %18, %22
  br i1 %23, label %24, label %30

24:                                               ; preds = %17
  %25 = load ptr, ptr %8, align 8, !tbaa !8
  %26 = getelementptr inbounds nuw %struct.Llb_Grp_t_, ptr %25, i32 0, i32 1
  %27 = load ptr, ptr %26, align 8, !tbaa !14
  %28 = load i32, ptr %10, align 4, !tbaa !24
  %29 = call ptr @Vec_PtrEntry(ptr noundef %27, i32 noundef %28)
  store ptr %29, ptr %9, align 8, !tbaa !34
  br label %30

30:                                               ; preds = %24, %17
  %31 = phi i1 [ false, %17 ], [ true, %24 ]
  br i1 %31, label %32, label %43

32:                                               ; preds = %30
  %33 = load ptr, ptr %9, align 8, !tbaa !34
  %34 = getelementptr inbounds nuw %struct.Aig_Obj_t_, ptr %33, i32 0, i32 5
  %35 = load i32, ptr %34, align 4, !tbaa !79
  %36 = load i32, ptr %7, align 4, !tbaa !24
  %37 = icmp eq i32 %35, %36
  br i1 %37, label %38, label %39

38:                                               ; preds = %32
  store i32 1, ptr %4, align 4
  store i32 1, ptr %11, align 4
  br label %71

39:                                               ; preds = %32
  br label %40

40:                                               ; preds = %39
  %41 = load i32, ptr %10, align 4, !tbaa !24
  %42 = add nsw i32 %41, 1
  store i32 %42, ptr %10, align 4, !tbaa !24
  br label %17, !llvm.loop !86

43:                                               ; preds = %30
  store i32 0, ptr %10, align 4, !tbaa !24
  br label %44

44:                                               ; preds = %67, %43
  %45 = load i32, ptr %10, align 4, !tbaa !24
  %46 = load ptr, ptr %8, align 8, !tbaa !8
  %47 = getelementptr inbounds nuw %struct.Llb_Grp_t_, ptr %46, i32 0, i32 2
  %48 = load ptr, ptr %47, align 8, !tbaa !15
  %49 = call i32 @Vec_PtrSize(ptr noundef %48)
  %50 = icmp slt i32 %45, %49
  br i1 %50, label %51, label %57

51:                                               ; preds = %44
  %52 = load ptr, ptr %8, align 8, !tbaa !8
  %53 = getelementptr inbounds nuw %struct.Llb_Grp_t_, ptr %52, i32 0, i32 2
  %54 = load ptr, ptr %53, align 8, !tbaa !15
  %55 = load i32, ptr %10, align 4, !tbaa !24
  %56 = call ptr @Vec_PtrEntry(ptr noundef %54, i32 noundef %55)
  store ptr %56, ptr %9, align 8, !tbaa !34
  br label %57

57:                                               ; preds = %51, %44
  %58 = phi i1 [ false, %44 ], [ true, %51 ]
  br i1 %58, label %59, label %70

59:                                               ; preds = %57
  %60 = load ptr, ptr %9, align 8, !tbaa !34
  %61 = getelementptr inbounds nuw %struct.Aig_Obj_t_, ptr %60, i32 0, i32 5
  %62 = load i32, ptr %61, align 4, !tbaa !79
  %63 = load i32, ptr %7, align 4, !tbaa !24
  %64 = icmp eq i32 %62, %63
  br i1 %64, label %65, label %66

65:                                               ; preds = %59
  store i32 1, ptr %4, align 4
  store i32 1, ptr %11, align 4
  br label %71

66:                                               ; preds = %59
  br label %67

67:                                               ; preds = %66
  %68 = load i32, ptr %10, align 4, !tbaa !24
  %69 = add nsw i32 %68, 1
  store i32 %69, ptr %10, align 4, !tbaa !24
  br label %44, !llvm.loop !87

70:                                               ; preds = %57
  store i32 0, ptr %4, align 4
  store i32 1, ptr %11, align 4
  br label %71

71:                                               ; preds = %70, %65, %38
  call void @llvm.lifetime.end.p0(i64 4, ptr %10) #8
  call void @llvm.lifetime.end.p0(i64 8, ptr %9) #8
  call void @llvm.lifetime.end.p0(i64 8, ptr %8) #8
  %72 = load i32, ptr %4, align 4
  ret i32 %72
}