; Function Attrs: nofree norecurse nosync nounwind memory(read, inaccessiblemem: none) uwtable
define range(i32 0, 2) i32 @Llb_ManGroupHasVar(ptr noundef readonly captures(none) %0, i32 noundef %1, i32 noundef %2) local_unnamed_addr #8 {
  %4 = getelementptr inbounds nuw i8, ptr %0, i64 64
  %5 = load ptr, ptr %4, align 8, !tbaa !18
  %6 = getelementptr i8, ptr %5, i64 8
  %.val22 = load ptr, ptr %6, align 8, !tbaa !15
  %7 = sext i32 %1 to i64
  %8 = getelementptr inbounds ptr, ptr %.val22, i64 %7
  %9 = load ptr, ptr %8, align 8, !tbaa !26
  %10 = getelementptr inbounds nuw i8, ptr %9, i64 8
  %11 = load ptr, ptr %10, align 8, !tbaa !16
  %12 = getelementptr i8, ptr %11, i64 4
  %.val19 = load i32, ptr %12, align 4, !tbaa !12
  %13 = icmp sgt i32 %.val19, 0
  br i1 %13, label %.lr.ph, label %.critedge.preheader

.lr.ph:                                           ; preds = %3
  %14 = getelementptr i8, ptr %11, i64 8
  %.val21 = load ptr, ptr %14, align 8, !tbaa !15
  %wide.trip.count = zext nneg i32 %.val19 to i64
  br label %21

15:                                               ; preds = %21
  %indvars.iv.next = add nuw nsw i64 %indvars.iv, 1
  %exitcond.not = icmp eq i64 %indvars.iv.next, %wide.trip.count
  br i1 %exitcond.not, label %.critedge.preheader, label %21, !llvm.loop !80

.critedge.preheader:                              ; preds = %15, %3
  %16 = getelementptr inbounds nuw i8, ptr %9, i64 16
  %17 = load ptr, ptr %16, align 8, !tbaa !17
  %18 = getelementptr i8, ptr %17, i64 4
  %.val = load i32, ptr %18, align 4, !tbaa !12
  %19 = icmp sgt i32 %.val, 0
  br i1 %19, label %.lr.ph26, label %.critedge2

.lr.ph26:                                         ; preds = %.critedge.preheader
  %20 = getelementptr i8, ptr %17, i64 8
  %.val20 = load ptr, ptr %20, align 8, !tbaa !15
  %wide.trip.count33 = zext nneg i32 %.val to i64
  br label %27

21:                                               ; preds = %.lr.ph, %15
  %indvars.iv = phi i64 [ 0, %.lr.ph ], [ %indvars.iv.next, %15 ]
  %22 = getelementptr inbounds nuw ptr, ptr %.val21, i64 %indvars.iv
  %23 = load ptr, ptr %22, align 8, !tbaa !26
  %24 = getelementptr inbounds nuw i8, ptr %23, i64 36
  %25 = load i32, ptr %24, align 4, !tbaa !73
  %26 = icmp eq i32 %25, %2
  br i1 %26, label %.critedge2, label %15

.critedge:                                        ; preds = %27
  %indvars.iv.next31 = add nuw nsw i64 %indvars.iv30, 1
  %exitcond34.not = icmp eq i64 %indvars.iv.next31, %wide.trip.count33
  br i1 %exitcond34.not, label %.critedge2, label %27, !llvm.loop !81

27:                                               ; preds = %.lr.ph26, %.critedge
  %indvars.iv30 = phi i64 [ 0, %.lr.ph26 ], [ %indvars.iv.next31, %.critedge ]
  %28 = getelementptr inbounds nuw ptr, ptr %.val20, i64 %indvars.iv30
  %29 = load ptr, ptr %28, align 8, !tbaa !26
  %30 = getelementptr inbounds nuw i8, ptr %29, i64 36
  %31 = load i32, ptr %30, align 4, !tbaa !73
  %32 = icmp eq i32 %31, %2
  br i1 %32, label %.critedge2, label %.critedge

.critedge2:                                       ; preds = %21, %27, %.critedge, %.critedge.preheader
  %.018 = phi i32 [ 0, %.critedge.preheader ], [ 1, %27 ], [ 0, %.critedge ], [ 1, %21 ]
  ret i32 %.018
}